target datalayout = "e-m:e-p270:32:32-p271:32:32-p272:64:64-i64:64-i128:128-f80:128-n8:16:32:64-S128"
target triple = "x86_64-pc-linux-gnu"

%struct.anon = type { [4 x ptr], [4 x ptr], i32, i32, i32, i32, i32, i32, i32, i32, i32, i32, [3 x i32], [3 x i32], [20 x i32], [20 x i32], [2 x i32], [2 x i32], [6 x [6 x double]], [6 x double], [6 x double], [6 x double], [6 x double], double, double, double, [2400 x double], [2400 x double], ptr, ptr, ptr, i32 }

; Function Attrs: nounwind uwtable
define internal i32 @PSolveB(double noundef %0, ptr noundef %1, ptr noundef %2, ptr noundef %3, ptr noundef %4, ptr noundef %5, double noundef %6, double noundef %7, i32 noundef %8, ptr noundef %9) #0 {
  %11 = alloca double, align 8
  %12 = alloca ptr, align 8
  %13 = alloca ptr, align 8
  %14 = alloca ptr, align 8
  %15 = alloca ptr, align 8
  %16 = alloca ptr, align 8
  %17 = alloca double, align 8
  %18 = alloca double, align 8
  %19 = alloca i32, align 4
  %20 = alloca ptr, align 8
  %21 = alloca ptr, align 8
  %22 = alloca ptr, align 8
  %23 = alloca i32, align 4
  %24 = alloca i32, align 4
  %25 = alloca i32, align 4
  %26 = alloca i32, align 4
  %27 = alloca i32, align 4
  %28 = alloca i32, align 4
  %29 = alloca ptr, align 8
  %30 = alloca ptr, align 8
  %31 = alloca i32, align 4
  %32 = alloca i32, align 4
  %33 = alloca i32, align 4
  %34 = alloca i32, align 4
  %35 = alloca ptr, align 8
  store double %0, ptr %11, align 8, !tbaa !11
  store ptr %1, ptr %12, align 8, !tbaa !13
  store ptr %2, ptr %13, align 8, !tbaa !13
  store ptr %3, ptr %14, align 8, !tbaa !13
  store ptr %4, ptr %15, align 8, !tbaa !13
  store ptr %5, ptr %16, align 8, !tbaa !13
  store double %6, ptr %17, align 8, !tbaa !11
  store double %7, ptr %18, align 8, !tbaa !11
  store i32 %8, ptr %19, align 4, !tbaa !4
  store ptr %9, ptr %20, align 8, !tbaa !15
  call void @llvm.lifetime.start.p0(i64 8, ptr %21) #6
  call void @llvm.lifetime.start.p0(i64 8, ptr %22) #6
  call void @llvm.lifetime.start.p0(i64 4, ptr %23) #6
  call void @llvm.lifetime.start.p0(i64 4, ptr %24) #6
  call void @llvm.lifetime.start.p0(i64 4, ptr %25) #6
  call void @llvm.lifetime.start.p0(i64 4, ptr %26) #6
  call void @llvm.lifetime.start.p0(i64 4, ptr %27) #6
  call void @llvm.lifetime.start.p0(i64 4, ptr %28) #6
  call void @llvm.lifetime.start.p0(i64 8, ptr %29) #6
  call void @llvm.lifetime.start.p0(i64 8, ptr %30) #6
  call void @llvm.lifetime.start.p0(i64 4, ptr %31) #6
  call void @llvm.lifetime.start.p0(i64 4, ptr %32) #6
  call void @llvm.lifetime.start.p0(i64 4, ptr %33) #6
  call void @llvm.lifetime.start.p0(i64 4, ptr %34) #6
  call void @llvm.lifetime.start.p0(i64 8, ptr %35) #6
  %36 = load ptr, ptr %20, align 8, !tbaa !15
  store ptr %36, ptr %35, align 8, !tbaa !15
  %37 = load ptr, ptr %15, align 8, !tbaa !13
  %38 = load ptr, ptr %16, align 8, !tbaa !13
  call void @N_VScale(double noundef 1.000000e+00, ptr noundef %37, ptr noundef %38)
  %39 = load double, ptr %17, align 8, !tbaa !11
  %40 = fneg double %39
  %41 = load ptr, ptr %16, align 8, !tbaa !13
  %42 = load ptr, ptr %35, align 8, !tbaa !15
  %43 = getelementptr inbounds nuw %struct.anon, ptr %42, i32 0, i32 29
  %44 = load ptr, ptr %43, align 8, !tbaa !36
  %45 = load ptr, ptr %35, align 8, !tbaa !15
  call void @GSIter(double noundef %40, ptr noundef %41, ptr noundef %44, ptr noundef %45)
  %46 = load ptr, ptr %35, align 8, !tbaa !15
  %47 = getelementptr inbounds nuw %struct.anon, ptr %46, i32 0, i32 0
  %48 = getelementptr inbounds [4 x ptr], ptr %47, i64 0, i64 0
  store ptr %48, ptr %21, align 8, !tbaa !52
  %49 = load ptr, ptr %35, align 8, !tbaa !15
  %50 = getelementptr inbounds nuw %struct.anon, ptr %49, i32 0, i32 1
  %51 = getelementptr inbounds [4 x ptr], ptr %50, i64 0, i64 0
  store ptr %51, ptr %22, align 8, !tbaa !54
  %52 = load ptr, ptr %35, align 8, !tbaa !15
  %53 = getelementptr inbounds nuw %struct.anon, ptr %52, i32 0, i32 6
  %54 = load i32, ptr %53, align 8, !tbaa !45
  store i32 %54, ptr %31, align 4, !tbaa !4
  %55 = load ptr, ptr %35, align 8, !tbaa !15
  %56 = getelementptr inbounds nuw %struct.anon, ptr %55, i32 0, i32 7
  %57 = load i32, ptr %56, align 4, !tbaa !46
  store i32 %57, ptr %32, align 4, !tbaa !4
  %58 = load ptr, ptr %35, align 8, !tbaa !15
  %59 = getelementptr inbounds nuw %struct.anon, ptr %58, i32 0, i32 9
  %60 = load i32, ptr %59, align 4, !tbaa !50
  store i32 %60, ptr %33, align 4, !tbaa !4
  %61 = load ptr, ptr %35, align 8, !tbaa !15
  %62 = getelementptr inbounds nuw %struct.anon, ptr %61, i32 0, i32 4
  %63 = load i32, ptr %62, align 8, !tbaa !43
  store i32 %63, ptr %34, align 4, !tbaa !4
  %64 = load ptr, ptr %35, align 8, !tbaa !15
  %65 = getelementptr inbounds nuw %struct.anon, ptr %64, i32 0, i32 14
  %66 = getelementptr inbounds [20 x i32], ptr %65, i64 0, i64 0
  store ptr %66, ptr %29, align 8, !tbaa !27
  %67 = load ptr, ptr %35, align 8, !tbaa !15
  %68 = getelementptr inbounds nuw %struct.anon, ptr %67, i32 0, i32 15
  %69 = getelementptr inbounds [20 x i32], ptr %68, i64 0, i64 0
  store ptr %69, ptr %30, align 8, !tbaa !27
  store i32 0, ptr %27, align 4, !tbaa !4
  store i32 0, ptr %24, align 4, !tbaa !4
  br label %70

70:                                               ; preds = %119, %10
  %71 = load i32, ptr %24, align 4, !tbaa !4
  %72 = load i32, ptr %32, align 4, !tbaa !4
  %73 = icmp slt i32 %71, %72
  br i1 %73, label %74, label %122

74:                                               ; preds = %70
  %75 = load ptr, ptr %30, align 8, !tbaa !27
  %76 = load i32, ptr %24, align 4, !tbaa !4
  %77 = sext i32 %76 to i64
  %78 = getelementptr inbounds i32, ptr %75, i64 %77
  %79 = load i32, ptr %78, align 4, !tbaa !4
  store i32 %79, ptr %26, align 4, !tbaa !4
  store i32 0, ptr %23, align 4, !tbaa !4
  br label %80

80:                                               ; preds = %115, %74
  %81 = load i32, ptr %23, align 4, !tbaa !4
  %82 = load i32, ptr %31, align 4, !tbaa !4
  %83 = icmp slt i32 %81, %82
  br i1 %83, label %84, label %118

84:                                               ; preds = %80
  %85 = load ptr, ptr %29, align 8, !tbaa !27
  %86 = load i32, ptr %23, align 4, !tbaa !4
  %87 = sext i32 %86 to i64
  %88 = getelementptr inbounds i32, ptr %85, i64 %87
  %89 = load i32, ptr %88, align 4, !tbaa !4
  store i32 %89, ptr %25, align 4, !tbaa !4
  %90 = load i32, ptr %25, align 4, !tbaa !4
  %91 = load i32, ptr %26, align 4, !tbaa !4
  %92 = load i32, ptr %33, align 4, !tbaa !4
  %93 = mul nsw i32 %91, %92
  %94 = add nsw i32 %90, %93
  store i32 %94, ptr %28, align 4, !tbaa !4
  %95 = load ptr, ptr %21, align 8, !tbaa !52
  %96 = load i32, ptr %28, align 4, !tbaa !4
  %97 = sext i32 %96 to i64
  %98 = getelementptr inbounds ptr, ptr %95, i64 %97
  %99 = load ptr, ptr %98, align 8, !tbaa !31
  %100 = load i32, ptr %34, align 4, !tbaa !4
  %101 = sext i32 %100 to i64
  %102 = load ptr, ptr %22, align 8, !tbaa !54
  %103 = load i32, ptr %28, align 4, !tbaa !4
  %104 = sext i32 %103 to i64
  %105 = getelementptr inbounds ptr, ptr %102, i64 %104
  %106 = load ptr, ptr %105, align 8, !tbaa !33
  %107 = load ptr, ptr %16, align 8, !tbaa !13
  %108 = call ptr @N_VGetArrayPointer(ptr noundef %107)
  %109 = load i32, ptr %27, align 4, !tbaa !4
  %110 = sext i32 %109 to i64
  %111 = getelementptr inbounds double, ptr %108, i64 %110
  call void @SUNDlsMat_denseGETRS(ptr noundef %99, i64 noundef %101, ptr noundef %106, ptr noundef %111)
  %112 = load i32, ptr %34, align 4, !tbaa !4
  %113 = load i32, ptr %27, align 4, !tbaa !4
  %114 = add nsw i32 %113, %112
  store i32 %114, ptr %27, align 4, !tbaa !4
  br label %115

115:                                              ; preds = %84
  %116 = load i32, ptr %23, align 4, !tbaa !4
  %117 = add nsw i32 %116, 1
  store i32 %117, ptr %23, align 4, !tbaa !4
  br label %80

118:                                              ; preds = %80
  br label %119

119:                                              ; preds = %118
  %120 = load i32, ptr %24, align 4, !tbaa !4
  %121 = add nsw i32 %120, 1
  store i32 %121, ptr %24, align 4, !tbaa !4
  br label %70

122:                                              ; preds = %70
  call void @llvm.lifetime.end.p0(i64 8, ptr %35) #6
  call void @llvm.lifetime.end.p0(i64 4, ptr %34) #6
  call void @llvm.lifetime.end.p0(i64 4, ptr %33) #6
  call void @llvm.lifetime.end.p0(i64 4, ptr %32) #6
  call void @llvm.lifetime.end.p0(i64 4, ptr %31) #6
  call void @llvm.lifetime.end.p0(i64 8, ptr %30) #6
  call void @llvm.lifetime.end.p0(i64 8, ptr %29) #6
  call void @llvm.lifetime.end.p0(i64 4, ptr %28) #6
  call void @llvm.lifetime.end.p0(i64 4, ptr %27) #6
  call void @llvm.lifetime.end.p0(i64 4, ptr %26) #6
  call void @llvm.lifetime.end.p0(i64 4, ptr %25) #6
  call void @llvm.lifetime.end.p0(i64 4, ptr %24) #6
  call void @llvm.lifetime.end.p0(i64 4, ptr %23) #6
  call void @llvm.lifetime.end.p0(i64 8, ptr %22) #6
  call void @llvm.lifetime.end.p0(i64 8, ptr %21) #6
  ret i32 0
}