; Function Attrs: nounwind uwtable
define internal noundef i32 @PSolveB(double %0, ptr readnone captures(none) %1, ptr readnone captures(none) %2, ptr readnone captures(none) %3, ptr noundef %4, ptr noundef %5, double noundef %6, double %7, i32 %8, ptr noundef readonly captures(none) %9) #0 {
  tail call void @N_VScale(double noundef 1.000000e+00, ptr noundef %4, ptr noundef %5) #10
  %11 = fneg double %6
  %12 = getelementptr inbounds nuw i8, ptr %9, i64 39216
  %13 = load ptr, ptr %12, align 8, !tbaa !20
  tail call fastcc void @GSIter(double noundef %11, ptr noundef %5, ptr noundef %13, ptr noundef %9)
  %14 = getelementptr inbounds nuw i8, ptr %9, i64 32
  %15 = getelementptr inbounds nuw i8, ptr %9, i64 80
  %16 = load i32, ptr %15, align 8, !tbaa !28
  %17 = getelementptr inbounds nuw i8, ptr %9, i64 84
  %18 = load i32, ptr %17, align 4, !tbaa !29
  %19 = getelementptr inbounds nuw i8, ptr %9, i64 92
  %20 = load i32, ptr %19, align 4, !tbaa !33
  %21 = getelementptr inbounds nuw i8, ptr %9, i64 128
  %22 = getelementptr inbounds nuw i8, ptr %9, i64 208
  %23 = icmp sgt i32 %18, 0
  br i1 %23, label %.lr.ph43, label %._crit_edge44

.lr.ph43:                                         ; preds = %10
  %24 = getelementptr inbounds nuw i8, ptr %9, i64 72
  %25 = load i32, ptr %24, align 8, !tbaa !26
  %26 = icmp sgt i32 %16, 0
  %27 = sext i32 %25 to i64
  br i1 %26, label %.lr.ph.us.preheader, label %._crit_edge44

.lr.ph.us.preheader:                              ; preds = %.lr.ph43
  %wide.trip.count54 = zext nneg i32 %18 to i64
  %wide.trip.count = zext nneg i32 %16 to i64
  br label %.lr.ph.us

.lr.ph.us:                                        ; preds = %.lr.ph.us.preheader, %._crit_edge.us
  %indvars.iv51 = phi i64 [ 0, %.lr.ph.us.preheader ], [ %indvars.iv.next52, %._crit_edge.us ]
  %.03740.us = phi i64 [ 0, %.lr.ph.us.preheader ], [ %indvars.iv.next47, %._crit_edge.us ]
  %28 = getelementptr inbounds nuw i32, ptr %22, i64 %indvars.iv51
  %29 = load i32, ptr %28, align 4, !tbaa !35
  %30 = mul nsw i32 %29, %20
  %sext = shl i64 %.03740.us, 32
  %31 = ashr exact i64 %sext, 32
  br label %32

32:                                               ; preds = %.lr.ph.us, %32
  %indvars.iv46 = phi i64 [ %31, %.lr.ph.us ], [ %indvars.iv.next47, %32 ]
  %indvars.iv = phi i64 [ 0, %.lr.ph.us ], [ %indvars.iv.next, %32 ]
  %33 = getelementptr inbounds nuw i32, ptr %21, i64 %indvars.iv
  %34 = load i32, ptr %33, align 4, !tbaa !35
  %35 = add nsw i32 %34, %30
  %36 = sext i32 %35 to i64
  %37 = getelementptr inbounds ptr, ptr %9, i64 %36
  %38 = load ptr, ptr %37, align 8, !tbaa !9
  %39 = getelementptr inbounds ptr, ptr %14, i64 %36
  %40 = load ptr, ptr %39, align 8, !tbaa !11
  %41 = tail call ptr @N_VGetArrayPointer(ptr noundef %5) #10
  %42 = getelementptr inbounds double, ptr %41, i64 %indvars.iv46
  tail call void @SUNDlsMat_denseGETRS(ptr noundef %38, i64 noundef %27, ptr noundef %40, ptr noundef %42) #10
  %indvars.iv.next47 = add nsw i64 %indvars.iv46, %27
  %indvars.iv.next = add nuw nsw i64 %indvars.iv, 1
  %exitcond.not = icmp eq i64 %indvars.iv.next, %wide.trip.count
  br i1 %exitcond.not, label %._crit_edge.us, label %32

._crit_edge.us:                                   ; preds = %32
  %indvars.iv.next52 = add nuw nsw i64 %indvars.iv51, 1
  %exitcond55.not = icmp eq i64 %indvars.iv.next52, %wide.trip.count54
  br i1 %exitcond55.not, label %._crit_edge44, label %.lr.ph.us

._crit_edge44:                                    ; preds = %._crit_edge.us, %.lr.ph43, %10
  ret i32 0
}